; Function Attrs: mustprogress nounwind uwtable
define hidden void @_ZN14MacroAssembler6kmovwlE9KRegister14AddressLiteral8Register(ptr noundef nonnull align 8 dereferenceable(40) %0, i32 %1, ptr noundef %2, i32 %3) local_unnamed_addr #0 align 2 {
  %5 = alloca %class.Address, align 8
  %6 = alloca %class.Address, align 8
  %7 = alloca %class.AddressLiteral, align 8
  %8 = alloca %class.Address, align 8
  %9 = alloca %class.AddressLiteral, align 8
  %10 = alloca %class.AddressLiteral, align 8
  %11 = alloca %class.Address, align 8
  %12 = load ptr, ptr %2, align 8
  %13 = getelementptr inbounds i8, ptr %12, i64 16
  %14 = load ptr, ptr %13, align 8
  call void %14(ptr noundef nonnull align 8 dereferenceable(20) %2, ptr noundef nonnull align 8 dereferenceable(40) %7) #18
  %15 = getelementptr inbounds i8, ptr %7, i64 40
  %16 = getelementptr inbounds i8, ptr %2, i64 40
  call void @llvm.memcpy.p0.p0.i64(ptr noundef nonnull align 8 dereferenceable(16) %15, ptr noundef nonnull align 8 dereferenceable(16) %16, i64 16, i1 false)
  %17 = call noundef zeroext i1 @_ZN9Assembler9reachableE14AddressLiteral(ptr noundef nonnull align 8 dereferenceable(40) %0, ptr noundef nonnull %7) #18
  %18 = load ptr, ptr %2, align 8
  %19 = getelementptr inbounds i8, ptr %18, i64 16
  %20 = load ptr, ptr %19, align 8
  br i1 %17, label %21, label %40

21:                                               ; preds = %4
  call void %20(ptr noundef nonnull align 8 dereferenceable(20) %2, ptr noundef nonnull align 8 dereferenceable(40) %9) #18
  %22 = getelementptr inbounds i8, ptr %9, i64 40
  call void @llvm.memcpy.p0.p0.i64(ptr noundef nonnull align 8 dereferenceable(16) %22, ptr noundef nonnull align 8 dereferenceable(16) %16, i64 16, i1 false)
  %23 = getelementptr inbounds i8, ptr %9, i64 48
  %24 = load ptr, ptr %23, align 8, !noalias !202
  %25 = getelementptr inbounds i8, ptr %0, i64 8
  %26 = load ptr, ptr %25, align 8, !noalias !202
  %27 = getelementptr inbounds i8, ptr %26, i64 16
  %28 = load ptr, ptr %27, align 8, !noalias !202
  %29 = ptrtoint ptr %24 to i64
  %30 = ptrtoint ptr %28 to i64
  %31 = sub i64 %29, %30
  %32 = trunc i64 %31 to i32
  %33 = getelementptr inbounds i8, ptr %9, i64 16
  %34 = load i32, ptr %33, align 8, !noalias !202
  call void @_ZN7AddressC1EiPhN9relocInfo9relocTypeE(ptr noundef nonnull align 8 dereferenceable(64) %8, i32 noundef %32, ptr noundef %24, i32 noundef %34) #18
  call void @llvm.lifetime.start.p0(i64 64, ptr nonnull %6)
  call void @llvm.memcpy.p0.p0.i64(ptr noundef nonnull align 8 dereferenceable(21) %6, ptr noundef nonnull align 8 dereferenceable(21) %8, i64 21, i1 false)
  %35 = getelementptr inbounds i8, ptr %6, i64 24
  %36 = getelementptr inbounds i8, ptr %8, i64 24
  %37 = load ptr, ptr %36, align 8
  %38 = getelementptr inbounds i8, ptr %37, i64 16
  %39 = load ptr, ptr %38, align 8
  call void %39(ptr noundef nonnull align 8 dereferenceable(20) %36, ptr noundef nonnull align 8 dereferenceable(40) %35) #18
  call void @_ZN9Assembler6kmovwlE9KRegister7Address(ptr noundef nonnull align 8 dereferenceable(40) %0, i32 %1, ptr noundef nonnull %6) #18
  call void @llvm.lifetime.end.p0(i64 64, ptr nonnull %6)
  br label %52

40:                                               ; preds = %4
  call void %20(ptr noundef nonnull align 8 dereferenceable(20) %2, ptr noundef nonnull align 8 dereferenceable(40) %10) #18
  %41 = getelementptr inbounds i8, ptr %10, i64 40
  call void @llvm.memcpy.p0.p0.i64(ptr noundef nonnull align 8 dereferenceable(16) %41, ptr noundef nonnull align 8 dereferenceable(16) %16, i64 16, i1 false)
  %42 = getelementptr inbounds i8, ptr %10, i64 48
  %43 = load ptr, ptr %42, align 8
  %44 = ptrtoint ptr %43 to i64
  call void @_ZN9Assembler13mov_literal64E8RegisterlRK16RelocationHolder(ptr noundef nonnull align 8 dereferenceable(40) %0, i32 %3, i64 noundef %44, ptr noundef nonnull align 8 dereferenceable(40) %10) #18
  store i32 %3, ptr %11, align 8
  %45 = getelementptr inbounds i8, ptr %11, i64 4
  store <4 x i32> <i32 -1, i32 -1, i32 -1, i32 0>, ptr %45, align 4
  %46 = getelementptr inbounds i8, ptr %11, i64 20
  store i8 0, ptr %46, align 4
  %47 = getelementptr inbounds i8, ptr %11, i64 24
  store ptr getelementptr inbounds inrange(-16, 72) (i8, ptr @_ZTV10Relocation, i64 16), ptr %47, align 8
  %48 = getelementptr inbounds i8, ptr %11, i64 32
  store ptr null, ptr %48, align 8
  %49 = getelementptr inbounds i8, ptr %11, i64 40
  store i32 0, ptr %49, align 8
  call void @llvm.lifetime.start.p0(i64 64, ptr nonnull %5)
  call void @llvm.memcpy.p0.p0.i64(ptr noundef nonnull align 8 dereferenceable(21) %5, ptr noundef nonnull align 8 dereferenceable(21) %11, i64 21, i1 false)
  %50 = getelementptr inbounds i8, ptr %5, i64 24
  %51 = load ptr, ptr getelementptr inbounds inrange(-32, 56) (i8, ptr @_ZTV10Relocation, i64 32), align 8
  call void %51(ptr noundef nonnull align 8 dereferenceable(20) %47, ptr noundef nonnull align 8 dereferenceable(40) %50) #18
  call void @_ZN9Assembler6kmovwlE9KRegister7Address(ptr noundef nonnull align 8 dereferenceable(40) %0, i32 %1, ptr noundef nonnull %5) #18
  call void @llvm.lifetime.end.p0(i64 64, ptr nonnull %5)
  br label %52

52:                                               ; preds = %40, %21
  ret void
}